Certificate:
    Data:
        Version: 3 (0x2)
        Serial Number: 17 (0x11)
        Signature Algorithm: sha256WithRSAEncryption
        Issuer: C=CN, ST=CN, L=CN, O=CN, OU=CN, CN=CN
        Validity
            Not Before: Nov 21 09:10:06 2021 GMT
            Not After : Nov 21 09:10:06 2022 GMT
        Subject: C=CN, ST=CN, O=CN, OU=CN, CN=CN
        Subject Public Key Info:
            Public Key Algorithm: rsaEncryption
                RSA Public-Key: (2048 bit)
                Modulus:
                    00:df:41:04:89:8a:5b:57:4f:6f:55:d6:90:14:ae:
                    23:30:0f:c7:87:46:00:fd:a6:01:11:76:5d:24:b3:
                    bb:ce:73:05:ad:84:d8:88:35:56:50:57:c5:0e:5f:
                    77:38:17:75:94:f6:9a:5c:5d:34:8e:db:56:29:af:
                    40:1b:f8:77:43:ea:25:aa:10:24:a1:17:e7:71:d2:
                    9b:fc:20:10:ae:a6:14:2c:bb:1e:19:91:16:ce:51:
                    1f:ff:dc:03:ef:0c:33:38:3c:03:45:74:b6:39:a7:
                    0e:64:27:0e:c2:71:b8:80:e0:0a:90:6f:30:36:68:
                    50:a1:55:8c:25:66:ec:f3:6a:d4:fa:cd:9d:93:23:
                    52:40:56:cf:69:27:75:0c:cf:fb:43:10:32:b9:0f:
                    18:13:ed:f8:68:f3:98:0e:3c:e3:81:ae:30:17:0c:
                    0d:80:b1:30:57:62:64:7b:71:3b:88:81:2d:a2:a3:
                    d9:7b:b7:08:8c:e6:ef:55:ad:b2:b3:18:f7:12:e1:
                    ee:7d:ef:57:50:af:11:c7:1e:a2:3b:69:58:98:78:
                    de:e9:23:18:e4:69:cb:e2:91:88:02:e2:90:43:d5:
                    df:6c:90:8f:58:f7:03:1f:03:9b:2b:a5:7d:b9:19:
                    9b:07:22:82:46:a4:6f:4e:4b:82:00:de:f3:25:cc:
                    7e:81
                Exponent: 65537 (0x10001)
        X509v3 extensions:
            X509v3 Basic Constraints: 
                CA:FALSE
            Netscape Comment: 
                OpenSSL Generated Certificate
            X509v3 Subject Key Identifier: 
                41:57:92:AF:5B:B8:1C:99:D4:D7:82:90:D4:E0:23:66:25:24:BC:C9
            X509v3 Authority Key Identifier: 
                keyid:A2:E0:F4:6B:DB:FD:7D:07:63:6D:F5:37:69:DA:25:65:DE:E4:E8:58

    Signature Algorithm: sha256WithRSAEncryption
         73:15:12:12:70:16:ad:9e:59:d7:c1:d9:67:9e:8c:db:e1:9b:
         1b:08:0b:82:03:e6:85:74:c3:15:29:c7:0c:cd:00:55:f8:63:
         e0:44:07:92:cc:3d:df:3e:b2:6e:b4:2e:d7:1e:9f:9a:56:e4:
         3f:e5:b0:b9:d5:17:4c:74:88:cd:f4:d4:f6:52:e9:ac:ad:ca:
         93:c6:83:7e:61:fa:90:d9:1e:0d:65:11:a1:c0:08:67:f9:cf:
         bc:52:17:3b:9b:68:d5:c4:cc:64:49:84:4c:7f:b1:94:e3:3b:
         9f:b5:bb:0d:37:b6:98:2c:7c:f0:49:39:63:d2:08:24:c7:42:
         aa:f8:4d:79:08:57:d2:3a:1e:24:83:dc:b9:7d:fe:2f:d4:b8:
         08:4a:f4:e3:64:2d:4d:15:48:0e:7f:ea:f5:e7:a4:0e:79:2c:
         25:38:4e:9d:81:69:c4:91:cd:d4:60:86:31:a6:eb:6e:3c:ed:
         ca:a2:71:aa:29:f4:98:c1:6c:01:93:e9:bf:2d:22:12:60:84:
         73:4b:6f:95:82:6c:4c:35:1a:9a:48:49:bd:a6:a8:62:aa:6b:
         96:32:1d:06:c8:98:f5:fa:51:aa:3e:95:02:60:4b:fa:cf:42:
         d1:58:84:76:df:ed:c3:49:48:f3:7b:80:c9:85:c9:47:eb:9c:
         3f:bb:2f:4c
-----BEGIN CERTIFICATE-----
MIIDhTCCAm2gAwIBAgIBETANBgkqhkiG9w0BAQsFADBOMQswCQYDVQQGEwJDTjEL
MAkGA1UECAwCQ04xCzAJBgNVBAcMAkNOMQswCQYDVQQKDAJDTjELMAkGA1UECwwC
Q04xCzAJBgNVBAMMAkNOMB4XDTIxMTEyMTA5MTAwNloXDTIyMTEyMTA5MTAwNlow
QTELMAkGA1UEBhMCQ04xCzAJBgNVBAgMAkNOMQswCQYDVQQKDAJDTjELMAkGA1UE
CwwCQ04xCzAJBgNVBAMMAkNOMIIBIjANBgkqhkiG9w0BAQEFAAOCAQ8AMIIBCgKC
AQEA30EEiYpbV09vVdaQFK4jMA/Hh0YA/aYBEXZdJLO7znMFrYTYiDVWUFfFDl93
OBd1lPaaXF00jttWKa9AG/h3Q+olqhAkoRfncdKb/CAQrqYULLseGZEWzlEf/9wD
7wwzODwDRXS2OacOZCcOwnG4gOAKkG8wNmhQoVWMJWbs82rU+s2dkyNSQFbPaSd1
DM/7QxAyuQ8YE+34aPOYDjzjga4wFwwNgLEwV2Jke3E7iIEtoqPZe7cIjObvVa2y
sxj3EuHufe9XUK8Rxx6iO2lYmHje6SMY5GnL4pGIAuKQQ9XfbJCPWPcDHwObK6V9
uRmbByKCRqRvTkuCAN7zJcx+gQIDAQABo3sweTAJBgNVHRMEAjAAMCwGCWCGSAGG
+EIBDQQfFh1PcGVuU1NMIEdlbmVyYXRlZCBDZXJ0aWZpY2F0ZTAdBgNVHQ4EFgQU
QVeSr1u4HJnU14KQ1OAjZiUkvMkwHwYDVR0jBBgwFoAUouD0a9v9fQdjbfU3adol
Zd7k6FgwDQYJKoZIhvcNAQELBQADggEBAHMVEhJwFq2eWdfB2WeejNvhmxsIC4ID
5oV0wxUpxwzNAFX4Y+BEB5LMPd8+sm60Ltcen5pW5D/lsLnVF0x0iM301PZS6ayt
ypPGg35h+pDZHg1lEaHACGf5z7xSFzubaNXEzGRJhEx/sZTjO5+1uw03tpgsfPBJ
OWPSCCTHQqr4TXkIV9I6HiSD3Ll9/i/UuAhK9ONkLU0VSA5/6vXnpA55LCU4Tp2B
acSRzdRghjGm62487cqicaop9JjBbAGT6b8tIhJghHNLb5WCbEw1GppISb2mqGKq
a5YyHQbImPX6Uao+lQJgS/rPQtFYhHbf7cNJSPN7gMmFyUfrnD+7L0w=
-----END CERTIFICATE-----
